; Function Attrs: mustprogress uwtable
define hidden void @_ZN6spacer24lemma_global_generalizerclER3refINS_5lemmaEE(ptr noundef nonnull align 8 dereferenceable(225) %0, ptr noundef nonnull align 8 dereferenceable(8) %1) unnamed_addr #3 align 2 personality ptr @__gxx_personality_v0 {
  %3 = getelementptr inbounds nuw i8, ptr %0, i64 40
  %4 = getelementptr inbounds nuw i8, ptr %0, i64 56
  %5 = load i8, ptr %4, align 8, !tbaa !188, !range !181, !noundef !182
  %6 = trunc nuw i8 %5 to i1
  br i1 %6, label %_ZN12scoped_watchC2ER9stopwatchb.exit, label %7

7:                                                ; preds = %2
  %8 = tail call i64 @_ZNSt6chrono3_V212steady_clock3nowEv() #23
  store i64 %8, ptr %3, align 8, !tbaa !189
  store i8 1, ptr %4, align 8, !tbaa !188
  br label %_ZN12scoped_watchC2ER9stopwatchb.exit

_ZN12scoped_watchC2ER9stopwatchb.exit:            ; preds = %2, %7
  invoke void @_ZN6spacer24lemma_global_generalizer10generalizeER3refINS_5lemmaEE(ptr noundef nonnull align 8 dereferenceable(225) %0, ptr noundef nonnull align 8 dereferenceable(8) %1)
          to label %9 unwind label %18

9:                                                ; preds = %_ZN12scoped_watchC2ER9stopwatchb.exit
  %10 = load i8, ptr %4, align 8, !tbaa !188, !range !181, !noundef !182
  %11 = trunc nuw i8 %10 to i1
  br i1 %11, label %12, label %_ZN12scoped_watchD2Ev.exit

12:                                               ; preds = %9
  %13 = tail call i64 @_ZNSt6chrono3_V212steady_clock3nowEv() #23
  %.sroa.0.0.copyload.i2.i.i.i = load i64, ptr %3, align 8, !tbaa !189
  %14 = sub i64 %13, %.sroa.0.0.copyload.i2.i.i.i
  %15 = getelementptr inbounds nuw i8, ptr %0, i64 48
  %16 = load i64, ptr %15, align 8, !tbaa !190
  %17 = add nsw i64 %14, %16
  store i64 %17, ptr %15, align 8, !tbaa !190
  store i8 0, ptr %4, align 8, !tbaa !188
  br label %_ZN12scoped_watchD2Ev.exit

_ZN12scoped_watchD2Ev.exit:                       ; preds = %9, %12
  ret void

18:                                               ; preds = %_ZN12scoped_watchC2ER9stopwatchb.exit
  %19 = landingpad { ptr, i32 }
          cleanup
  %20 = load i8, ptr %4, align 8, !tbaa !188, !range !181, !noundef !182
  %21 = trunc nuw i8 %20 to i1
  br i1 %21, label %22, label %_ZN12scoped_watchD2Ev.exit4

22:                                               ; preds = %18
  %23 = tail call i64 @_ZNSt6chrono3_V212steady_clock3nowEv() #23
  %.sroa.0.0.copyload.i2.i.i.i3 = load i64, ptr %3, align 8, !tbaa !189
  %24 = sub i64 %23, %.sroa.0.0.copyload.i2.i.i.i3
  %25 = getelementptr inbounds nuw i8, ptr %0, i64 48
  %26 = load i64, ptr %25, align 8, !tbaa !190
  %27 = add nsw i64 %24, %26
  store i64 %27, ptr %25, align 8, !tbaa !190
  store i8 0, ptr %4, align 8, !tbaa !188
  br label %_ZN12scoped_watchD2Ev.exit4

_ZN12scoped_watchD2Ev.exit4:                      ; preds = %18, %22
  resume { ptr, i32 } %19
}